; Function Attrs: mustprogress nounwind uwtable
define dso_local noundef nonnull align 8 dereferenceable(361) ptr @_ZN4llvm23GISelCSEAnalysisWrapper3getESt10unique_ptrINS_13CSEConfigBaseESt14default_deleteIS2_EEb(ptr noundef nonnull returned align 8 dereferenceable(377) %0, ptr nocapture noundef %1, i1 noundef zeroext %2) local_unnamed_addr #0 align 2 {
  %4 = getelementptr inbounds nuw i8, ptr %0, i64 376
  %5 = load i8, ptr %4, align 8
  %6 = trunc i8 %5 to i1
  %.not = xor i1 %6, true
  %brmerge = or i1 %2, %.not
  br i1 %brmerge, label %7, label %17

7:                                                ; preds = %3
  tail call void @_ZN4llvm12GISelCSEInfo13releaseMemoryEv(ptr noundef nonnull align 8 dereferenceable(361) %0)
  %8 = load i64, ptr %1, align 8
  %9 = inttoptr i64 %8 to ptr
  store ptr null, ptr %1, align 8
  %10 = getelementptr inbounds nuw i8, ptr %0, i64 200
  %11 = load ptr, ptr %10, align 8
  store ptr %9, ptr %10, align 8
  %.not.i.i.i.i.i = icmp eq ptr %11, null
  br i1 %.not.i.i.i.i.i, label %_ZNSt10unique_ptrIN4llvm13CSEConfigBaseESt14default_deleteIS1_EED2Ev.exit, label %_ZNKSt14default_deleteIN4llvm13CSEConfigBaseEEclEPS1_.exit.i.i.i.i.i

_ZNKSt14default_deleteIN4llvm13CSEConfigBaseEEclEPS1_.exit.i.i.i.i.i: ; preds = %7
  %12 = load ptr, ptr %11, align 8
  %13 = getelementptr inbounds i8, ptr %12, i64 8
  %14 = load ptr, ptr %13, align 8
  tail call void %14(ptr noundef nonnull align 8 dereferenceable(8) %11) #17
  br label %_ZNSt10unique_ptrIN4llvm13CSEConfigBaseESt14default_deleteIS1_EED2Ev.exit

_ZNSt10unique_ptrIN4llvm13CSEConfigBaseESt14default_deleteIS1_EED2Ev.exit: ; preds = %_ZNKSt14default_deleteIN4llvm13CSEConfigBaseEEclEPS1_.exit.i.i.i.i.i, %7
  %15 = getelementptr inbounds nuw i8, ptr %0, i64 368
  %16 = load ptr, ptr %15, align 8
  tail call void @_ZN4llvm12GISelCSEInfo7analyzeERNS_15MachineFunctionE(ptr noundef nonnull align 8 dereferenceable(361) %0, ptr noundef nonnull align 8 dereferenceable(1041) %16)
  store i8 1, ptr %4, align 8
  br label %17

17:                                               ; preds = %3, %_ZNSt10unique_ptrIN4llvm13CSEConfigBaseESt14default_deleteIS1_EED2Ev.exit
  ret ptr %0
}